target datalayout = "e-m:e-p270:32:32-p271:32:32-p272:64:64-i64:64-i128:128-f80:128-n8:16:32:64-S128"
target triple = "x86_64-pc-linux-gnu"

%struct.msghdr = type { ptr, i32, ptr, i64, ptr, i64, i32 }
%struct.cmsghdr = type { i64, i32, i32, [0 x i8] }

; Function Attrs: inlinehint nounwind sspstrong uwtable
define available_externally ptr @__cmsg_nxthdr(ptr noundef %0, ptr noundef %1) #3 {
  %3 = alloca ptr, align 8
  %4 = alloca ptr, align 8
  %5 = alloca ptr, align 8
  store ptr %0, ptr %4, align 8, !tbaa !45
  store ptr %1, ptr %5, align 8, !tbaa !47
  %6 = load ptr, ptr %5, align 8, !tbaa !47
  %7 = getelementptr inbounds nuw %struct.cmsghdr, ptr %6, i32 0, i32 0
  %8 = load i64, ptr %7, align 8, !tbaa !6
  %9 = icmp ult i64 %8, 16
  br i1 %9, label %10, label %11

10:                                               ; preds = %2
  store ptr null, ptr %3, align 8
  br label %50

11:                                               ; preds = %2
  %12 = load ptr, ptr %5, align 8, !tbaa !47
  %13 = load ptr, ptr %5, align 8, !tbaa !47
  %14 = getelementptr inbounds nuw %struct.cmsghdr, ptr %13, i32 0, i32 0
  %15 = load i64, ptr %14, align 8, !tbaa !6
  %16 = add i64 %15, 8
  %17 = sub i64 %16, 1
  %18 = and i64 %17, -8
  %19 = getelementptr inbounds nuw i8, ptr %12, i64 %18
  store ptr %19, ptr %5, align 8, !tbaa !47
  %20 = load ptr, ptr %5, align 8, !tbaa !47
  %21 = getelementptr inbounds %struct.cmsghdr, ptr %20, i64 1
  %22 = load ptr, ptr %4, align 8, !tbaa !45
  %23 = getelementptr inbounds nuw %struct.msghdr, ptr %22, i32 0, i32 4
  %24 = load ptr, ptr %23, align 8, !tbaa !34
  %25 = load ptr, ptr %4, align 8, !tbaa !45
  %26 = getelementptr inbounds nuw %struct.msghdr, ptr %25, i32 0, i32 5
  %27 = load i64, ptr %26, align 8, !tbaa !35
  %28 = getelementptr inbounds nuw i8, ptr %24, i64 %27
  %29 = icmp ugt ptr %21, %28
  br i1 %29, label %47, label %30

30:                                               ; preds = %11
  %31 = load ptr, ptr %5, align 8, !tbaa !47
  %32 = load ptr, ptr %5, align 8, !tbaa !47
  %33 = getelementptr inbounds nuw %struct.cmsghdr, ptr %32, i32 0, i32 0
  %34 = load i64, ptr %33, align 8, !tbaa !6
  %35 = add i64 %34, 8
  %36 = sub i64 %35, 1
  %37 = and i64 %36, -8
  %38 = getelementptr inbounds nuw i8, ptr %31, i64 %37
  %39 = load ptr, ptr %4, align 8, !tbaa !45
  %40 = getelementptr inbounds nuw %struct.msghdr, ptr %39, i32 0, i32 4
  %41 = load ptr, ptr %40, align 8, !tbaa !34
  %42 = load ptr, ptr %4, align 8, !tbaa !45
  %43 = getelementptr inbounds nuw %struct.msghdr, ptr %42, i32 0, i32 5
  %44 = load i64, ptr %43, align 8, !tbaa !35
  %45 = getelementptr inbounds nuw i8, ptr %41, i64 %44
  %46 = icmp ugt ptr %38, %45
  br i1 %46, label %47, label %48

47:                                               ; preds = %30, %11
  store ptr null, ptr %3, align 8
  br label %50

48:                                               ; preds = %30
  %49 = load ptr, ptr %5, align 8, !tbaa !47
  store ptr %49, ptr %3, align 8
  br label %50

50:                                               ; preds = %48, %47, %10
  %51 = load ptr, ptr %3, align 8
  ret ptr %51
}

; Function Attrs: nounwind sspstrong uwtable
define internal void @discard_cmsg(ptr noundef %0, ptr noundef %1, i32 noundef %2) #0 {
  %4 = alloca ptr, align 8
  %5 = alloca ptr, align 8
  %6 = alloca i32, align 4
  %7 = alloca ptr, align 8
  %8 = alloca ptr, align 8
  store ptr %0, ptr %4, align 8, !tbaa !47
  store ptr %1, ptr %5, align 8, !tbaa !20
  store i32 %2, ptr %6, align 4, !tbaa !10
  %9 = load ptr, ptr %4, align 8, !tbaa !47
  %10 = getelementptr inbounds nuw %struct.cmsghdr, ptr %9, i32 0, i32 1
  %11 = load i32, ptr %10, align 8, !tbaa !10
  %12 = icmp eq i32 %11, 1
  br i1 %12, label %13, label %48

13:                                               ; preds = %3
  %14 = load ptr, ptr %4, align 8, !tbaa !47
  %15 = getelementptr inbounds nuw %struct.cmsghdr, ptr %14, i32 0, i32 2
  %16 = load i32, ptr %15, align 4, !tbaa !10
  %17 = icmp eq i32 %16, 1
  br i1 %17, label %18, label %48

18:                                               ; preds = %13
  call void @llvm.lifetime.start.p0(i64 8, ptr %7) #21
  %19 = load ptr, ptr %4, align 8, !tbaa !47
  %20 = getelementptr inbounds nuw %struct.cmsghdr, ptr %19, i32 0, i32 3
  %21 = getelementptr inbounds [0 x i8], ptr %20, i64 0, i64 0
  store ptr %21, ptr %7, align 8, !tbaa !50
  call void @llvm.lifetime.start.p0(i64 8, ptr %8) #21
  %22 = load ptr, ptr %4, align 8, !tbaa !47
  %23 = load ptr, ptr %4, align 8, !tbaa !47
  %24 = getelementptr inbounds nuw %struct.cmsghdr, ptr %23, i32 0, i32 0
  %25 = load i64, ptr %24, align 8, !tbaa !6
  %26 = getelementptr inbounds nuw i8, ptr %22, i64 %25
  store ptr %26, ptr %8, align 8, !tbaa !50
  br label %27

27:                                               ; preds = %39, %18
  %28 = load ptr, ptr %7, align 8, !tbaa !50
  %29 = getelementptr inbounds nuw i8, ptr %28, i64 4
  %30 = load ptr, ptr %8, align 8, !tbaa !50
  %31 = icmp ule ptr %29, %30
  br i1 %31, label %32, label %37

32:                                               ; preds = %27
  %33 = load ptr, ptr %7, align 8, !tbaa !50
  %34 = getelementptr inbounds nuw i8, ptr %33, i64 4
  %35 = load ptr, ptr %5, align 8, !tbaa !20
  %36 = icmp ule ptr %34, %35
  br label %37

37:                                               ; preds = %32, %27
  %38 = phi i1 [ false, %27 ], [ %36, %32 ]
  br i1 %38, label %39, label %47

39:                                               ; preds = %37
  %40 = load ptr, ptr %7, align 8, !tbaa !50
  %41 = load i32, ptr %40, align 4, !tbaa !10
  call void @rb_update_max_fd(i32 noundef %41)
  %42 = load ptr, ptr %7, align 8, !tbaa !50
  %43 = load i32, ptr %42, align 4, !tbaa !10
  %44 = call i32 @close(i32 noundef %43)
  %45 = load ptr, ptr %7, align 8, !tbaa !50
  %46 = getelementptr inbounds nuw i32, ptr %45, i32 1
  store ptr %46, ptr %7, align 8, !tbaa !50
  br label %27, !llvm.loop !52

47:                                               ; preds = %37
  call void @llvm.lifetime.end.p0(i64 8, ptr %8) #21
  call void @llvm.lifetime.end.p0(i64 8, ptr %7) #21
  br label %48

48:                                               ; preds = %47, %13, %3
  ret void
}

; Function Attrs: nounwind sspstrong uwtable
define void @rsock_discard_cmsg_resource(ptr noundef %0, i32 noundef %1) #0 {
  %3 = alloca ptr, align 8
  %4 = alloca i32, align 4
  %5 = alloca ptr, align 8
  %6 = alloca ptr, align 8
  %7 = alloca i32, align 4
  store ptr %0, ptr %3, align 8, !tbaa !45
  store i32 %1, ptr %4, align 4, !tbaa !10
  call void @llvm.lifetime.start.p0(i64 8, ptr %5) #21
  call void @llvm.lifetime.start.p0(i64 8, ptr %6) #21
  %8 = load ptr, ptr %3, align 8, !tbaa !45
  %9 = getelementptr inbounds nuw %struct.msghdr, ptr %8, i32 0, i32 5
  %10 = load i64, ptr %9, align 8, !tbaa !35
  %11 = icmp eq i64 %10, 0
  br i1 %11, label %12, label %13

12:                                               ; preds = %2
  store i32 1, ptr %7, align 4
  br label %44

13:                                               ; preds = %2
  %14 = load ptr, ptr %3, align 8, !tbaa !45
  %15 = getelementptr inbounds nuw %struct.msghdr, ptr %14, i32 0, i32 4
  %16 = load ptr, ptr %15, align 8, !tbaa !34
  %17 = load ptr, ptr %3, align 8, !tbaa !45
  %18 = getelementptr inbounds nuw %struct.msghdr, ptr %17, i32 0, i32 5
  %19 = load i64, ptr %18, align 8, !tbaa !35
  %20 = getelementptr inbounds nuw i8, ptr %16, i64 %19
  store ptr %20, ptr %6, align 8, !tbaa !20
  %21 = load ptr, ptr %3, align 8, !tbaa !45
  %22 = getelementptr inbounds nuw %struct.msghdr, ptr %21, i32 0, i32 5
  %23 = load i64, ptr %22, align 8, !tbaa !35
  %24 = icmp uge i64 %23, 16
  br i1 %24, label %25, label %29

25:                                               ; preds = %13
  %26 = load ptr, ptr %3, align 8, !tbaa !45
  %27 = getelementptr inbounds nuw %struct.msghdr, ptr %26, i32 0, i32 4
  %28 = load ptr, ptr %27, align 8, !tbaa !34
  br label %30

29:                                               ; preds = %13
  br label %30

30:                                               ; preds = %29, %25
  %31 = phi ptr [ %28, %25 ], [ null, %29 ]
  store ptr %31, ptr %5, align 8, !tbaa !47
  br label %32

32:                                               ; preds = %39, %30
  %33 = load ptr, ptr %5, align 8, !tbaa !47
  %34 = icmp ne ptr %33, null
  br i1 %34, label %35, label %43

35:                                               ; preds = %32
  %36 = load ptr, ptr %5, align 8, !tbaa !47
  %37 = load ptr, ptr %6, align 8, !tbaa !20
  %38 = load i32, ptr %4, align 4, !tbaa !10
  call void @discard_cmsg(ptr noundef %36, ptr noundef %37, i32 noundef %38)
  br label %39

39:                                               ; preds = %35
  %40 = load ptr, ptr %3, align 8, !tbaa !45
  %41 = load ptr, ptr %5, align 8, !tbaa !47
  %42 = call ptr @__cmsg_nxthdr(ptr noundef %40, ptr noundef %41) #21
  store ptr %42, ptr %5, align 8, !tbaa !47
  br label %32, !llvm.loop !49

43:                                               ; preds = %32
  store i32 0, ptr %7, align 4
  br label %44

44:                                               ; preds = %43, %12
  call void @llvm.lifetime.end.p0(i64 8, ptr %6) #21
  call void @llvm.lifetime.end.p0(i64 8, ptr %5) #21
  %45 = load i32, ptr %7, align 4
  switch i32 %45, label %47 [
    i32 0, label %46
    i32 1, label %46
  ]

46:                                               ; preds = %44, %44
  ret void

47:                                               ; preds = %44
  unreachable
}