; Function Attrs: nounwind sspstrong uwtable
define void @rsock_discard_cmsg_resource(ptr noundef readonly captures(none) %0, i32 noundef %1) local_unnamed_addr #0 {
  %3 = getelementptr inbounds nuw i8, ptr %0, i64 40
  %4 = load i64, ptr %3, align 8, !tbaa !51
  %5 = icmp eq i64 %4, 0
  br i1 %5, label %.loopexit, label %6

6:                                                ; preds = %2
  %7 = getelementptr inbounds nuw i8, ptr %0, i64 32
  %8 = load ptr, ptr %7, align 8, !tbaa !50
  %9 = getelementptr inbounds nuw i8, ptr %8, i64 %4
  %10 = icmp ult i64 %4, 16
  %.not1113 = icmp eq ptr %8, null
  %.not11 = select i1 %10, i1 true, i1 %.not1113
  br i1 %.not11, label %.loopexit, label %.lr.ph

.lr.ph:                                           ; preds = %6, %45
  %.012 = phi ptr [ %39, %45 ], [ %8, %6 ]
  %11 = getelementptr inbounds nuw i8, ptr %.012, i64 8
  %12 = load i32, ptr %11, align 8, !tbaa !65
  %13 = icmp eq i32 %12, 1
  br i1 %13, label %14, label %discard_cmsg.exit

14:                                               ; preds = %.lr.ph
  %15 = getelementptr inbounds nuw i8, ptr %.012, i64 12
  %16 = load i32, ptr %15, align 4, !tbaa !65
  %17 = icmp eq i32 %16, 1
  br i1 %17, label %18, label %discard_cmsg.exit

18:                                               ; preds = %14
  %19 = load i64, ptr %.012, align 8, !tbaa !6
  %20 = getelementptr inbounds nuw i8, ptr %.012, i64 %19
  %21 = getelementptr inbounds nuw i8, ptr %.012, i64 20
  %22 = icmp ugt i64 %19, 19
  %23 = icmp ule ptr %21, %9
  %24 = and i1 %23, %22
  br i1 %24, label %.lr.ph.preheader.i, label %discard_cmsg.exit

.lr.ph.preheader.i:                               ; preds = %18
  %25 = getelementptr inbounds nuw i8, ptr %.012, i64 16
  br label %.lr.ph.i

.lr.ph.i:                                         ; preds = %.lr.ph.i, %.lr.ph.preheader.i
  %26 = phi ptr [ %30, %.lr.ph.i ], [ %21, %.lr.ph.preheader.i ]
  %.013.i = phi ptr [ %26, %.lr.ph.i ], [ %25, %.lr.ph.preheader.i ]
  %27 = load i32, ptr %.013.i, align 4, !tbaa !65
  tail call void @rb_update_max_fd(i32 noundef %27) #10
  %28 = load i32, ptr %.013.i, align 4, !tbaa !65
  %29 = tail call i32 @close(i32 noundef %28) #10
  %30 = getelementptr inbounds nuw i8, ptr %26, i64 4
  %31 = icmp ule ptr %30, %20
  %32 = icmp ule ptr %30, %9
  %33 = and i1 %31, %32
  br i1 %33, label %.lr.ph.i, label %discard_cmsg.exit, !llvm.loop !68

discard_cmsg.exit:                                ; preds = %.lr.ph.i, %.lr.ph, %14, %18
  %34 = load i64, ptr %.012, align 8, !tbaa !6
  %35 = icmp ult i64 %34, 16
  br i1 %35, label %.loopexit, label %36

36:                                               ; preds = %discard_cmsg.exit
  %37 = add i64 %34, 7
  %38 = and i64 %37, -8
  %39 = getelementptr inbounds nuw i8, ptr %.012, i64 %38
  %40 = getelementptr inbounds nuw i8, ptr %39, i64 16
  %41 = load ptr, ptr %7, align 8, !tbaa !50
  %42 = load i64, ptr %3, align 8, !tbaa !51
  %43 = getelementptr inbounds nuw i8, ptr %41, i64 %42
  %44 = icmp ugt ptr %40, %43
  br i1 %44, label %.loopexit, label %45

45:                                               ; preds = %36
  %46 = load i64, ptr %39, align 8, !tbaa !6
  %47 = add i64 %46, 7
  %48 = and i64 %47, -8
  %49 = getelementptr inbounds nuw i8, ptr %39, i64 %48
  %50 = icmp ugt ptr %49, %43
  br i1 %50, label %.loopexit, label %.lr.ph, !llvm.loop !69

.loopexit:                                        ; preds = %45, %36, %discard_cmsg.exit, %6, %2
  ret void
}